target datalayout = "e-m:e-p270:32:32-p271:32:32-p272:64:64-i64:64-i128:128-f80:128-n8:16:32:64-S128"
target triple = "x86_64-pc-linux-gnu"

%struct.ident_t = type { i32, i32, i32, i32, ptr }
%"class.std::function" = type { %"class.std::_Function_base", ptr }
%"class.std::_Function_base" = type { %"union.std::_Any_data", ptr }
%"union.std::_Any_data" = type { %"union.std::_Nocopy_types" }
%"union.std::_Nocopy_types" = type { { i64, i64 } }
%"class.LightGBM::ObjectiveFunction" = type { ptr }
%"class.LightGBM::BinaryLogloss" = type <{ %"class.LightGBM::ObjectiveFunction", i32, i32, ptr, i8, [7 x i8], double, [2 x i32], [2 x double], ptr, double, %"class.std::function", i8, i8, [6 x i8] }>

@1 = private unnamed_addr constant %struct.ident_t { i32 0, i32 514, i32 0, i32 22, ptr @0 }, align 8

; Function Attrs: mustprogress nounwind uwtable
define linkonce_odr noundef zeroext i1 @_ZNKSt14_Function_base8_M_emptyEv(ptr noundef nonnull align 8 dereferenceable(24) %0) #7 comdat align 2 {
  %2 = alloca ptr, align 8
  store ptr %0, ptr %2, align 8, !tbaa !109
  %3 = load ptr, ptr %2, align 8
  %4 = getelementptr inbounds nuw %"class.std::_Function_base", ptr %3, i32 0, i32 1
  %5 = load ptr, ptr %4, align 8, !tbaa !111
  %6 = icmp ne ptr %5, null
  %7 = xor i1 %6, true
  ret i1 %7
}

; Function Attrs: mustprogress uwtable
define linkonce_odr noundef zeroext i1 @_ZNKSt8functionIFbfEEclEf(ptr noundef nonnull align 8 dereferenceable(32) %0, float noundef %1) #4 comdat align 2 {
  %3 = alloca ptr, align 8
  %4 = alloca float, align 4
  store ptr %0, ptr %3, align 8, !tbaa !92
  store float %1, ptr %4, align 4, !tbaa !210
  %5 = load ptr, ptr %3, align 8
  %6 = call noundef zeroext i1 @_ZNKSt14_Function_base8_M_emptyEv(ptr noundef nonnull align 8 dereferenceable(24) %5)
  br i1 %6, label %7, label %8

7:                                                ; preds = %2
  call void @_ZSt25__throw_bad_function_callv() #30
  unreachable

8:                                                ; preds = %2
  %9 = getelementptr inbounds nuw %"class.std::function", ptr %5, i32 0, i32 1
  %10 = load ptr, ptr %9, align 8, !tbaa !96
  %11 = getelementptr inbounds nuw %"class.std::_Function_base", ptr %5, i32 0, i32 0
  %12 = call noundef zeroext i1 %10(ptr noundef nonnull align 8 dereferenceable(16) %11, ptr noundef nonnull align 4 dereferenceable(4) %4)
  ret i1 %12
}

; Function Attrs: alwaysinline norecurse nounwind uwtable
define internal void @_ZNK8LightGBM13BinaryLogloss12GetGradientsEPKdPfS3_.omp_outlined.46(ptr noalias noundef %0, ptr noalias noundef %1, ptr noundef %2, ptr noundef nonnull align 8 dereferenceable(8) %3, ptr noundef nonnull align 8 dereferenceable(8) %4, ptr noundef nonnull align 8 dereferenceable(8) %5) #16 personality ptr @__gxx_personality_v0 {
  %7 = alloca ptr, align 8
  %8 = alloca ptr, align 8
  %9 = alloca ptr, align 8
  %10 = alloca ptr, align 8
  %11 = alloca ptr, align 8
  %12 = alloca ptr, align 8
  %13 = alloca i32, align 4
  %14 = alloca i32, align 4
  %15 = alloca i32, align 4
  %16 = alloca i32, align 4
  %17 = alloca i32, align 4
  %18 = alloca i32, align 4
  %19 = alloca i32, align 4
  %20 = alloca i32, align 4
  %21 = alloca i32, align 4
  %22 = alloca i32, align 4
  %23 = alloca i32, align 4
  %24 = alloca double, align 8
  %25 = alloca double, align 8
  %26 = alloca double, align 8
  store ptr %0, ptr %7, align 8, !tbaa !193
  store ptr %1, ptr %8, align 8, !tbaa !193
  store ptr %2, ptr %9, align 8, !tbaa !99
  store ptr %3, ptr %10, align 8, !tbaa !224
  store ptr %4, ptr %11, align 8, !tbaa !216
  store ptr %5, ptr %12, align 8, !tbaa !216
  %27 = load ptr, ptr %9, align 8, !tbaa !99
  %28 = load ptr, ptr %10, align 8, !tbaa !224
  %29 = load ptr, ptr %11, align 8, !tbaa !216
  %30 = load ptr, ptr %12, align 8, !tbaa !216
  call void @llvm.lifetime.start.p0(i64 4, ptr %13) #3
  call void @llvm.lifetime.start.p0(i64 4, ptr %14) #3
  %31 = getelementptr inbounds nuw %"class.LightGBM::BinaryLogloss", ptr %27, i32 0, i32 1
  %32 = load i32, ptr %31, align 8, !tbaa !590
  store i32 %32, ptr %14, align 4, !tbaa !141
  call void @llvm.lifetime.start.p0(i64 4, ptr %15) #3
  %33 = load i32, ptr %14, align 4, !tbaa !141
  %34 = sub nsw i32 %33, 0
  %35 = sdiv i32 %34, 1
  %36 = sub nsw i32 %35, 1
  store i32 %36, ptr %15, align 4, !tbaa !141
  call void @llvm.lifetime.start.p0(i64 4, ptr %16) #3
  store i32 0, ptr %16, align 4, !tbaa !141
  call void @llvm.lifetime.end.p0(i64 4, ptr %16) #3
  %37 = load i32, ptr %14, align 4, !tbaa !141
  %38 = icmp slt i32 0, %37
  br i1 %38, label %39, label %149

39:                                               ; preds = %6
  call void @llvm.lifetime.start.p0(i64 4, ptr %17) #3
  store i32 0, ptr %17, align 4, !tbaa !141
  call void @llvm.lifetime.start.p0(i64 4, ptr %18) #3
  %40 = load i32, ptr %15, align 4, !tbaa !141
  store i32 %40, ptr %18, align 4, !tbaa !141
  call void @llvm.lifetime.start.p0(i64 4, ptr %19) #3
  store i32 1, ptr %19, align 4, !tbaa !141
  call void @llvm.lifetime.start.p0(i64 4, ptr %20) #3
  store i32 0, ptr %20, align 4, !tbaa !141
  call void @llvm.lifetime.start.p0(i64 4, ptr %21) #3
  %41 = load ptr, ptr %7, align 8
  %42 = load i32, ptr %41, align 4, !tbaa !141
  call void @__kmpc_for_static_init_4(ptr @1, i32 %42, i32 34, ptr %20, ptr %17, ptr %18, ptr %19, i32 1, i32 1)
  %43 = load i32, ptr %18, align 4, !tbaa !141
  %44 = load i32, ptr %15, align 4, !tbaa !141
  %45 = icmp sgt i32 %43, %44
  br i1 %45, label %46, label %48

46:                                               ; preds = %39
  %47 = load i32, ptr %15, align 4, !tbaa !141
  br label %50

48:                                               ; preds = %39
  %49 = load i32, ptr %18, align 4, !tbaa !141
  br label %50

50:                                               ; preds = %48, %46
  %51 = phi i32 [ %47, %46 ], [ %49, %48 ]
  store i32 %51, ptr %18, align 4, !tbaa !141
  %52 = load i32, ptr %17, align 4, !tbaa !141
  store i32 %52, ptr %13, align 4, !tbaa !141
  br label %53

53:                                               ; preds = %142, %50
  %54 = load i32, ptr %13, align 4, !tbaa !141
  %55 = load i32, ptr %18, align 4, !tbaa !141
  %56 = icmp sle i32 %54, %55
  br i1 %56, label %58, label %57

57:                                               ; preds = %53
  br label %145

58:                                               ; preds = %53
  %59 = load i32, ptr %13, align 4, !tbaa !141
  %60 = mul nsw i32 %59, 1
  %61 = add nsw i32 0, %60
  store i32 %61, ptr %21, align 4, !tbaa !141
  call void @llvm.lifetime.start.p0(i64 4, ptr %22) #3
  %62 = getelementptr inbounds nuw %"class.LightGBM::BinaryLogloss", ptr %27, i32 0, i32 11
  %63 = getelementptr inbounds nuw %"class.LightGBM::BinaryLogloss", ptr %27, i32 0, i32 3
  %64 = load ptr, ptr %63, align 8, !tbaa !591
  %65 = load i32, ptr %21, align 4, !tbaa !141
  %66 = sext i32 %65 to i64
  %67 = getelementptr inbounds float, ptr %64, i64 %66
  %68 = load float, ptr %67, align 4, !tbaa !210
  %69 = invoke noundef zeroext i1 @_ZNKSt8functionIFbfEEclEf(ptr noundef nonnull align 8 dereferenceable(32) %62, float noundef %68)
          to label %70 unwind label %150

70:                                               ; preds = %58
  %71 = zext i1 %69 to i32
  store i32 %71, ptr %22, align 4, !tbaa !141
  call void @llvm.lifetime.start.p0(i64 4, ptr %23) #3
  %72 = getelementptr inbounds nuw %"class.LightGBM::BinaryLogloss", ptr %27, i32 0, i32 7
  %73 = load i32, ptr %22, align 4, !tbaa !141
  %74 = sext i32 %73 to i64
  %75 = getelementptr inbounds [2 x i32], ptr %72, i64 0, i64 %74
  %76 = load i32, ptr %75, align 4, !tbaa !141
  store i32 %76, ptr %23, align 4, !tbaa !141
  call void @llvm.lifetime.start.p0(i64 8, ptr %24) #3
  %77 = getelementptr inbounds nuw %"class.LightGBM::BinaryLogloss", ptr %27, i32 0, i32 8
  %78 = load i32, ptr %22, align 4, !tbaa !141
  %79 = sext i32 %78 to i64
  %80 = getelementptr inbounds [2 x double], ptr %77, i64 0, i64 %79
  %81 = load double, ptr %80, align 8, !tbaa !194
  store double %81, ptr %24, align 8, !tbaa !194
  call void @llvm.lifetime.start.p0(i64 8, ptr %25) #3
  %82 = load i32, ptr %23, align 4, !tbaa !141
  %83 = sub nsw i32 0, %82
  %84 = sitofp i32 %83 to double
  %85 = getelementptr inbounds nuw %"class.LightGBM::BinaryLogloss", ptr %27, i32 0, i32 6
  %86 = load double, ptr %85, align 8, !tbaa !104
  %87 = fmul double %84, %86
  %88 = load i32, ptr %23, align 4, !tbaa !141
  %89 = sitofp i32 %88 to double
  %90 = getelementptr inbounds nuw %"class.LightGBM::BinaryLogloss", ptr %27, i32 0, i32 6
  %91 = load double, ptr %90, align 8, !tbaa !104
  %92 = fmul double %89, %91
  %93 = load ptr, ptr %28, align 8, !tbaa !191
  %94 = load i32, ptr %21, align 4, !tbaa !141
  %95 = sext i32 %94 to i64
  %96 = getelementptr inbounds double, ptr %93, i64 %95
  %97 = load double, ptr %96, align 8, !tbaa !194
  %98 = fmul double %92, %97
  %99 = call double @exp(double noundef %98) #3, !tbaa !141
  %100 = fadd double 1.000000e+00, %99
  %101 = fdiv double %87, %100
  store double %101, ptr %25, align 8, !tbaa !194
  call void @llvm.lifetime.start.p0(i64 8, ptr %26) #3
  %102 = load double, ptr %25, align 8, !tbaa !194
  %103 = call double @llvm.fabs.f64(double %102)
  store double %103, ptr %26, align 8, !tbaa !194
  %104 = load double, ptr %25, align 8, !tbaa !194
  %105 = load double, ptr %24, align 8, !tbaa !194
  %106 = fmul double %104, %105
  %107 = getelementptr inbounds nuw %"class.LightGBM::BinaryLogloss", ptr %27, i32 0, i32 9
  %108 = load ptr, ptr %107, align 8, !tbaa !592
  %109 = load i32, ptr %21, align 4, !tbaa !141
  %110 = sext i32 %109 to i64
  %111 = getelementptr inbounds float, ptr %108, i64 %110
  %112 = load float, ptr %111, align 4, !tbaa !210
  %113 = fpext float %112 to double
  %114 = fmul double %106, %113
  %115 = fptrunc double %114 to float
  %116 = load ptr, ptr %29, align 8, !tbaa !192
  %117 = load i32, ptr %21, align 4, !tbaa !141
  %118 = sext i32 %117 to i64
  %119 = getelementptr inbounds float, ptr %116, i64 %118
  store float %115, ptr %119, align 4, !tbaa !210
  %120 = load double, ptr %26, align 8, !tbaa !194
  %121 = getelementptr inbounds nuw %"class.LightGBM::BinaryLogloss", ptr %27, i32 0, i32 6
  %122 = load double, ptr %121, align 8, !tbaa !104
  %123 = load double, ptr %26, align 8, !tbaa !194
  %124 = fsub double %122, %123
  %125 = fmul double %120, %124
  %126 = load double, ptr %24, align 8, !tbaa !194
  %127 = fmul double %125, %126
  %128 = getelementptr inbounds nuw %"class.LightGBM::BinaryLogloss", ptr %27, i32 0, i32 9
  %129 = load ptr, ptr %128, align 8, !tbaa !592
  %130 = load i32, ptr %21, align 4, !tbaa !141
  %131 = sext i32 %130 to i64
  %132 = getelementptr inbounds float, ptr %129, i64 %131
  %133 = load float, ptr %132, align 4, !tbaa !210
  %134 = fpext float %133 to double
  %135 = fmul double %127, %134
  %136 = fptrunc double %135 to float
  %137 = load ptr, ptr %30, align 8, !tbaa !192
  %138 = load i32, ptr %21, align 4, !tbaa !141
  %139 = sext i32 %138 to i64
  %140 = getelementptr inbounds float, ptr %137, i64 %139
  store float %136, ptr %140, align 4, !tbaa !210
  call void @llvm.lifetime.end.p0(i64 8, ptr %26) #3
  call void @llvm.lifetime.end.p0(i64 8, ptr %25) #3
  call void @llvm.lifetime.end.p0(i64 8, ptr %24) #3
  call void @llvm.lifetime.end.p0(i64 4, ptr %23) #3
  call void @llvm.lifetime.end.p0(i64 4, ptr %22) #3
  br label %141

141:                                              ; preds = %70
  br label %142

142:                                              ; preds = %141
  %143 = load i32, ptr %13, align 4, !tbaa !141
  %144 = add nsw i32 %143, 1
  store i32 %144, ptr %13, align 4, !tbaa !141
  br label %53

145:                                              ; preds = %57
  br label %146

146:                                              ; preds = %145
  %147 = load ptr, ptr %7, align 8
  %148 = load i32, ptr %147, align 4, !tbaa !141
  call void @__kmpc_for_static_fini(ptr @1, i32 %148)
  call void @llvm.lifetime.end.p0(i64 4, ptr %21) #3
  call void @llvm.lifetime.end.p0(i64 4, ptr %20) #3
  call void @llvm.lifetime.end.p0(i64 4, ptr %19) #3
  call void @llvm.lifetime.end.p0(i64 4, ptr %18) #3
  call void @llvm.lifetime.end.p0(i64 4, ptr %17) #3
  br label %149

149:                                              ; preds = %146, %6
  call void @llvm.lifetime.end.p0(i64 4, ptr %15) #3
  call void @llvm.lifetime.end.p0(i64 4, ptr %14) #3
  call void @llvm.lifetime.end.p0(i64 4, ptr %13) #3
  ret void

150:                                              ; preds = %58
  %151 = landingpad { ptr, i32 }
          catch ptr null
  %152 = extractvalue { ptr, i32 } %151, 0
  call void @__clang_call_terminate(ptr %152) #29
  unreachable
}