; Function Attrs: alwaysinline norecurse nounwind uwtable
define internal void @_ZNK8LightGBM13BinaryLogloss12GetGradientsEPKdPfS3_.omp_outlined.46(ptr noalias noundef readonly captures(none) %0, ptr noalias readnone captures(none) %1, ptr noundef %2, ptr noundef nonnull readonly align 8 captures(none) dereferenceable(8) %3, ptr noundef nonnull readonly align 8 captures(none) dereferenceable(8) %4, ptr noundef nonnull readonly align 8 captures(none) dereferenceable(8) %5) #14 personality ptr @__gxx_personality_v0 {
  %7 = alloca float, align 4
  %8 = alloca i32, align 4
  %9 = alloca i32, align 4
  %10 = alloca i32, align 4
  %11 = alloca i32, align 4
  %12 = getelementptr inbounds nuw i8, ptr %2, i64 8
  %13 = load i32, ptr %12, align 8, !tbaa !358
  %14 = icmp sgt i32 %13, 0
  br i1 %14, label %15, label %79

15:                                               ; preds = %6
  %16 = add nsw i32 %13, -1
  call void @llvm.lifetime.start.p0(i64 4, ptr nonnull %8) #15
  store i32 0, ptr %8, align 4, !tbaa !127
  call void @llvm.lifetime.start.p0(i64 4, ptr nonnull %9) #15
  store i32 %16, ptr %9, align 4, !tbaa !127
  call void @llvm.lifetime.start.p0(i64 4, ptr nonnull %10) #15
  store i32 1, ptr %10, align 4, !tbaa !127
  call void @llvm.lifetime.start.p0(i64 4, ptr nonnull %11) #15
  store i32 0, ptr %11, align 4, !tbaa !127
  %17 = load i32, ptr %0, align 4, !tbaa !127
  call void @__kmpc_for_static_init_4(ptr nonnull @1, i32 %17, i32 34, ptr nonnull %11, ptr nonnull %8, ptr nonnull %9, ptr nonnull %10, i32 1, i32 1)
  %18 = load i32, ptr %9, align 4, !tbaa !127
  %19 = call i32 @llvm.smin.i32(i32 %18, i32 %16)
  store i32 %19, ptr %9, align 4, !tbaa !127
  %20 = load i32, ptr %8, align 4, !tbaa !127
  %.not30 = icmp sgt i32 %20, %19
  br i1 %.not30, label %._crit_edge, label %.lr.ph

.lr.ph:                                           ; preds = %15
  %21 = getelementptr inbounds nuw i8, ptr %2, i64 16
  %22 = getelementptr inbounds nuw i8, ptr %2, i64 96
  %23 = getelementptr inbounds nuw i8, ptr %2, i64 80
  %24 = getelementptr inbounds nuw i8, ptr %2, i64 104
  %25 = getelementptr inbounds nuw i8, ptr %2, i64 40
  %26 = getelementptr inbounds nuw i8, ptr %2, i64 48
  %27 = getelementptr inbounds nuw i8, ptr %2, i64 32
  %28 = getelementptr inbounds nuw i8, ptr %2, i64 64
  %29 = sext i32 %20 to i64
  br label %30

30:                                               ; preds = %.lr.ph, %39
  %indvars.iv = phi i64 [ %29, %.lr.ph ], [ %indvars.iv.next, %39 ]
  %31 = load ptr, ptr %21, align 8, !tbaa !359
  %32 = getelementptr inbounds float, ptr %31, i64 %indvars.iv
  %33 = load float, ptr %32, align 4, !tbaa !175
  call void @llvm.lifetime.start.p0(i64 4, ptr nonnull %7)
  store float %33, ptr %7, align 4, !tbaa !175
  %34 = load ptr, ptr %22, align 8, !tbaa !73
  %.not.i.i = icmp eq ptr %34, null
  br i1 %.not.i.i, label %35, label %36

35:                                               ; preds = %30
  invoke void @_ZSt25__throw_bad_function_callv() #38
          to label %.noexc unwind label %.loopexit.split-lp

.noexc:                                           ; preds = %35
  unreachable

36:                                               ; preds = %30
  %37 = load ptr, ptr %24, align 8, !tbaa !105
  %38 = invoke noundef zeroext i1 %37(ptr noundef nonnull align 8 dereferenceable(32) %23, ptr noundef nonnull align 4 dereferenceable(4) %7)
          to label %39 unwind label %.loopexit

39:                                               ; preds = %36
  call void @llvm.lifetime.end.p0(i64 4, ptr nonnull %7)
  %40 = zext i1 %38 to i64
  %41 = getelementptr inbounds nuw [2 x i32], ptr %25, i64 0, i64 %40
  %42 = load i32, ptr %41, align 4, !tbaa !127
  %43 = getelementptr inbounds nuw [2 x double], ptr %26, i64 0, i64 %40
  %44 = load double, ptr %43, align 8, !tbaa !153
  %45 = sub nsw i32 0, %42
  %46 = sitofp i32 %45 to double
  %47 = load double, ptr %27, align 8, !tbaa !100
  %48 = fmul double %47, %46
  %49 = sitofp i32 %42 to double
  %50 = fmul double %47, %49
  %51 = load ptr, ptr %3, align 8, !tbaa !152
  %52 = getelementptr inbounds double, ptr %51, i64 %indvars.iv
  %53 = load double, ptr %52, align 8, !tbaa !153
  %54 = fmul double %50, %53
  %55 = call double @exp(double noundef %54) #15, !tbaa !127
  %56 = fadd double %55, 1.000000e+00
  %57 = fdiv double %48, %56
  %58 = call double @llvm.fabs.f64(double %57)
  %59 = fmul double %44, %57
  %60 = load ptr, ptr %28, align 8, !tbaa !360
  %61 = getelementptr inbounds float, ptr %60, i64 %indvars.iv
  %62 = load float, ptr %61, align 4, !tbaa !175
  %63 = fpext float %62 to double
  %64 = fmul double %59, %63
  %65 = fptrunc double %64 to float
  %66 = load ptr, ptr %4, align 8, !tbaa !150
  %67 = getelementptr inbounds float, ptr %66, i64 %indvars.iv
  store float %65, ptr %67, align 4, !tbaa !175
  %68 = fsub double %47, %58
  %69 = fmul double %58, %68
  %70 = fmul double %44, %69
  %71 = load float, ptr %61, align 4, !tbaa !175
  %72 = fpext float %71 to double
  %73 = fmul double %70, %72
  %74 = fptrunc double %73 to float
  %75 = load ptr, ptr %5, align 8, !tbaa !150
  %76 = getelementptr inbounds float, ptr %75, i64 %indvars.iv
  store float %74, ptr %76, align 4, !tbaa !175
  %indvars.iv.next = add nsw i64 %indvars.iv, 1
  %77 = load i32, ptr %9, align 4, !tbaa !127
  %78 = sext i32 %77 to i64
  %.not.not = icmp slt i64 %indvars.iv, %78
  br i1 %.not.not, label %30, label %._crit_edge

._crit_edge:                                      ; preds = %39, %15
  call void @__kmpc_for_static_fini(ptr nonnull @1, i32 %17)
  call void @llvm.lifetime.end.p0(i64 4, ptr nonnull %11) #15
  call void @llvm.lifetime.end.p0(i64 4, ptr nonnull %10) #15
  call void @llvm.lifetime.end.p0(i64 4, ptr nonnull %9) #15
  call void @llvm.lifetime.end.p0(i64 4, ptr nonnull %8) #15
  br label %79

79:                                               ; preds = %._crit_edge, %6
  ret void

.loopexit:                                        ; preds = %36
  %lpad.loopexit = landingpad { ptr, i32 }
          catch ptr null
  br label %80

.loopexit.split-lp:                               ; preds = %35
  %lpad.loopexit.split-lp = landingpad { ptr, i32 }
          catch ptr null
  br label %80

80:                                               ; preds = %.loopexit.split-lp, %.loopexit
  %lpad.phi = phi { ptr, i32 } [ %lpad.loopexit, %.loopexit ], [ %lpad.loopexit.split-lp, %.loopexit.split-lp ]
  %81 = extractvalue { ptr, i32 } %lpad.phi, 0
  call void @__clang_call_terminate(ptr %81) #37
  unreachable
}